target datalayout = "e-m:e-p270:32:32-p271:32:32-p272:64:64-i64:64-i128:128-f80:128-n8:16:32:64-S128"
target triple = "x86_64-pc-linux-gnu"

%struct._xmlNode = type { ptr, i32, ptr, ptr, ptr, ptr, ptr, ptr, ptr, ptr, ptr, ptr, ptr, ptr, i16, i16 }
%struct._xmlNs = type { ptr, i32, ptr, ptr, ptr, ptr }

@.str = private unnamed_addr constant [5 x i8] c"area\00", align 1
@.str.1 = private unnamed_addr constant [5 x i8] c"base\00", align 1
@.str.2 = private unnamed_addr constant [3 x i8] c"br\00", align 1
@.str.3 = private unnamed_addr constant [4 x i8] c"col\00", align 1
@.str.4 = private unnamed_addr constant [6 x i8] c"embed\00", align 1
@.str.5 = private unnamed_addr constant [3 x i8] c"hr\00", align 1
@.str.6 = private unnamed_addr constant [4 x i8] c"img\00", align 1
@.str.7 = private unnamed_addr constant [6 x i8] c"input\00", align 1
@.str.8 = private unnamed_addr constant [5 x i8] c"link\00", align 1
@.str.9 = private unnamed_addr constant [5 x i8] c"meta\00", align 1
@.str.10 = private unnamed_addr constant [7 x i8] c"source\00", align 1
@.str.11 = private unnamed_addr constant [6 x i8] c"track\00", align 1
@.str.12 = private unnamed_addr constant [4 x i8] c"wbr\00", align 1
@.str.13 = private unnamed_addr constant [9 x i8] c"basefont\00", align 1
@.str.14 = private unnamed_addr constant [8 x i8] c"bgsound\00", align 1
@.str.15 = private unnamed_addr constant [6 x i8] c"frame\00", align 1
@.str.16 = private unnamed_addr constant [7 x i8] c"keygen\00", align 1
@.str.17 = private unnamed_addr constant [6 x i8] c"param\00", align 1
@.str.18 = private unnamed_addr constant [29 x i8] c"http://www.w3.org/1999/xhtml\00", align 1

; Function Attrs: nounwind uwtable
define internal zeroext i1 @dom_is_ns(ptr noundef %0, ptr noundef %1) #0 {
  %3 = alloca ptr, align 8
  %4 = alloca ptr, align 8
  store ptr %0, ptr %3, align 8
  store ptr %1, ptr %4, align 8
  %5 = load ptr, ptr %3, align 8
  %6 = getelementptr inbounds %struct._xmlNode, ptr %5, i32 0, i32 9
  %7 = load ptr, ptr %6, align 8
  %8 = icmp ne ptr %7, null
  br i1 %8, label %9, label %18

9:                                                ; preds = %2
  %10 = load ptr, ptr %3, align 8
  %11 = getelementptr inbounds %struct._xmlNode, ptr %10, i32 0, i32 9
  %12 = load ptr, ptr %11, align 8
  %13 = getelementptr inbounds %struct._xmlNs, ptr %12, i32 0, i32 2
  %14 = load ptr, ptr %13, align 8
  %15 = load ptr, ptr %4, align 8
  %16 = call i32 @strcmp(ptr noundef %14, ptr noundef %15) #3
  %17 = icmp eq i32 %16, 0
  br label %18

18:                                               ; preds = %9, %2
  %19 = phi i1 [ false, %2 ], [ %17, %9 ]
  ret i1 %19
}

; Function Attrs: nounwind uwtable
define internal zeroext i1 @dom_local_name_compare_ex(ptr noundef %0, ptr noundef %1, i64 noundef %2, i64 noundef %3) #0 {
  %5 = alloca ptr, align 8
  %6 = alloca ptr, align 8
  %7 = alloca i64, align 8
  %8 = alloca i64, align 8
  store ptr %0, ptr %5, align 8
  store ptr %1, ptr %6, align 8
  store i64 %2, ptr %7, align 8
  store i64 %3, ptr %8, align 8
  %9 = load i64, ptr %8, align 8
  %10 = load i64, ptr %7, align 8
  %11 = icmp eq i64 %9, %10
  br i1 %11, label %12, label %21

12:                                               ; preds = %4
  %13 = load ptr, ptr %5, align 8
  %14 = getelementptr inbounds %struct._xmlNode, ptr %13, i32 0, i32 2
  %15 = load ptr, ptr %14, align 8
  %16 = load i64, ptr %8, align 8
  %17 = load ptr, ptr %6, align 8
  %18 = load i64, ptr %7, align 8
  %19 = call i32 @zend_binary_strcmp(ptr noundef %15, i64 noundef %16, ptr noundef %17, i64 noundef %18)
  %20 = icmp eq i32 %19, 0
  br label %21

21:                                               ; preds = %12, %4
  %22 = phi i1 [ false, %4 ], [ %20, %12 ]
  ret i1 %22
}

; Function Attrs: nounwind uwtable
define internal zeroext i1 @dom_is_html_ns(ptr noundef %0) #0 {
  %2 = alloca ptr, align 8
  store ptr %0, ptr %2, align 8
  %3 = load ptr, ptr %2, align 8
  %4 = getelementptr inbounds %struct._xmlNode, ptr %3, i32 0, i32 9
  %5 = load ptr, ptr %4, align 8
  %6 = icmp eq ptr %5, null
  br i1 %6, label %10, label %7

7:                                                ; preds = %1
  %8 = load ptr, ptr %2, align 8
  %9 = call zeroext i1 @dom_is_ns(ptr noundef %8, ptr noundef @.str.18)
  br label %10

10:                                               ; preds = %7, %1
  %11 = phi i1 [ true, %1 ], [ %9, %7 ]
  ret i1 %11
}

; Function Attrs: nounwind uwtable
define internal zeroext i1 @dom_html5_serializes_as_void(ptr noundef %0) #0 {
  %2 = alloca i1, align 1
  %3 = alloca ptr, align 8
  %4 = alloca i64, align 8
  store ptr %0, ptr %3, align 8
  %5 = load ptr, ptr %3, align 8
  %6 = call zeroext i1 @dom_is_html_ns(ptr noundef %5)
  br i1 %6, label %7, label %85

7:                                                ; preds = %1
  %8 = load ptr, ptr %3, align 8
  %9 = getelementptr inbounds %struct._xmlNode, ptr %8, i32 0, i32 2
  %10 = load ptr, ptr %9, align 8
  %11 = call i64 @strlen(ptr noundef %10) #3
  store i64 %11, ptr %4, align 8
  %12 = load ptr, ptr %3, align 8
  %13 = load i64, ptr %4, align 8
  %14 = call zeroext i1 @dom_local_name_compare_ex(ptr noundef %12, ptr noundef @.str, i64 noundef 4, i64 noundef %13)
  br i1 %14, label %83, label %15

15:                                               ; preds = %7
  %16 = load ptr, ptr %3, align 8
  %17 = load i64, ptr %4, align 8
  %18 = call zeroext i1 @dom_local_name_compare_ex(ptr noundef %16, ptr noundef @.str.1, i64 noundef 4, i64 noundef %17)
  br i1 %18, label %83, label %19

19:                                               ; preds = %15
  %20 = load ptr, ptr %3, align 8
  %21 = load i64, ptr %4, align 8
  %22 = call zeroext i1 @dom_local_name_compare_ex(ptr noundef %20, ptr noundef @.str.2, i64 noundef 2, i64 noundef %21)
  br i1 %22, label %83, label %23

23:                                               ; preds = %19
  %24 = load ptr, ptr %3, align 8
  %25 = load i64, ptr %4, align 8
  %26 = call zeroext i1 @dom_local_name_compare_ex(ptr noundef %24, ptr noundef @.str.3, i64 noundef 3, i64 noundef %25)
  br i1 %26, label %83, label %27

27:                                               ; preds = %23
  %28 = load ptr, ptr %3, align 8
  %29 = load i64, ptr %4, align 8
  %30 = call zeroext i1 @dom_local_name_compare_ex(ptr noundef %28, ptr noundef @.str.4, i64 noundef 5, i64 noundef %29)
  br i1 %30, label %83, label %31

31:                                               ; preds = %27
  %32 = load ptr, ptr %3, align 8
  %33 = load i64, ptr %4, align 8
  %34 = call zeroext i1 @dom_local_name_compare_ex(ptr noundef %32, ptr noundef @.str.5, i64 noundef 2, i64 noundef %33)
  br i1 %34, label %83, label %35

35:                                               ; preds = %31
  %36 = load ptr, ptr %3, align 8
  %37 = load i64, ptr %4, align 8
  %38 = call zeroext i1 @dom_local_name_compare_ex(ptr noundef %36, ptr noundef @.str.6, i64 noundef 3, i64 noundef %37)
  br i1 %38, label %83, label %39

39:                                               ; preds = %35
  %40 = load ptr, ptr %3, align 8
  %41 = load i64, ptr %4, align 8
  %42 = call zeroext i1 @dom_local_name_compare_ex(ptr noundef %40, ptr noundef @.str.7, i64 noundef 5, i64 noundef %41)
  br i1 %42, label %83, label %43

43:                                               ; preds = %39
  %44 = load ptr, ptr %3, align 8
  %45 = load i64, ptr %4, align 8
  %46 = call zeroext i1 @dom_local_name_compare_ex(ptr noundef %44, ptr noundef @.str.8, i64 noundef 4, i64 noundef %45)
  br i1 %46, label %83, label %47

47:                                               ; preds = %43
  %48 = load ptr, ptr %3, align 8
  %49 = load i64, ptr %4, align 8
  %50 = call zeroext i1 @dom_local_name_compare_ex(ptr noundef %48, ptr noundef @.str.9, i64 noundef 4, i64 noundef %49)
  br i1 %50, label %83, label %51

51:                                               ; preds = %47
  %52 = load ptr, ptr %3, align 8
  %53 = load i64, ptr %4, align 8
  %54 = call zeroext i1 @dom_local_name_compare_ex(ptr noundef %52, ptr noundef @.str.10, i64 noundef 6, i64 noundef %53)
  br i1 %54, label %83, label %55

55:                                               ; preds = %51
  %56 = load ptr, ptr %3, align 8
  %57 = load i64, ptr %4, align 8
  %58 = call zeroext i1 @dom_local_name_compare_ex(ptr noundef %56, ptr noundef @.str.11, i64 noundef 5, i64 noundef %57)
  br i1 %58, label %83, label %59

59:                                               ; preds = %55
  %60 = load ptr, ptr %3, align 8
  %61 = load i64, ptr %4, align 8
  %62 = call zeroext i1 @dom_local_name_compare_ex(ptr noundef %60, ptr noundef @.str.12, i64 noundef 3, i64 noundef %61)
  br i1 %62, label %83, label %63

63:                                               ; preds = %59
  %64 = load ptr, ptr %3, align 8
  %65 = load i64, ptr %4, align 8
  %66 = call zeroext i1 @dom_local_name_compare_ex(ptr noundef %64, ptr noundef @.str.13, i64 noundef 8, i64 noundef %65)
  br i1 %66, label %83, label %67

67:                                               ; preds = %63
  %68 = load ptr, ptr %3, align 8
  %69 = load i64, ptr %4, align 8
  %70 = call zeroext i1 @dom_local_name_compare_ex(ptr noundef %68, ptr noundef @.str.14, i64 noundef 7, i64 noundef %69)
  br i1 %70, label %83, label %71

71:                                               ; preds = %67
  %72 = load ptr, ptr %3, align 8
  %73 = load i64, ptr %4, align 8
  %74 = call zeroext i1 @dom_local_name_compare_ex(ptr noundef %72, ptr noundef @.str.15, i64 noundef 5, i64 noundef %73)
  br i1 %74, label %83, label %75

75:                                               ; preds = %71
  %76 = load ptr, ptr %3, align 8
  %77 = load i64, ptr %4, align 8
  %78 = call zeroext i1 @dom_local_name_compare_ex(ptr noundef %76, ptr noundef @.str.16, i64 noundef 6, i64 noundef %77)
  br i1 %78, label %83, label %79

79:                                               ; preds = %75
  %80 = load ptr, ptr %3, align 8
  %81 = load i64, ptr %4, align 8
  %82 = call zeroext i1 @dom_local_name_compare_ex(ptr noundef %80, ptr noundef @.str.17, i64 noundef 5, i64 noundef %81)
  br i1 %82, label %83, label %84

83:                                               ; preds = %79, %75, %71, %67, %63, %59, %55, %51, %47, %43, %39, %35, %31, %27, %23, %19, %15, %7
  store i1 true, ptr %2, align 1
  br label %86

84:                                               ; preds = %79
  br label %85

85:                                               ; preds = %84, %1
  store i1 false, ptr %2, align 1
  br label %86

86:                                               ; preds = %85, %83
  %87 = load i1, ptr %2, align 1
  ret i1 %87
}